; Listing generated by Microsoft (R) Optimizing Compiler Version 19.26.28806.0 

	TITLE	c:\users\neonik\desktop\csgo cheat sources\otc-source\otc\cpp\frameworks\gameframework.cpp
	.686P
	.XMM
	include listing.inc
	.model	flat

INCLUDELIB OLDNAMES

PUBLIC	??_C@_01EEMJAFIK@?6@				; `string'
EXTRN	__imp__Sleep@4:PROC
EXTRN	@__security_check_cookie@4:PROC
;	COMDAT ??_C@_01EEMJAFIK@?6@
CONST	SEGMENT
??_C@_01EEMJAFIK@?6@ DB 0aH, 00H			; `string'
CONST	ENDS
PUBLIC	?PrintToConsole@GameFramework@@QAEP6AXPBDZZXZ	; GameFramework::PrintToConsole
PUBLIC	?PrintNewLineToConsole@GameFramework@@QAEXH@Z	; GameFramework::PrintNewLineToConsole
EXTRN	__CxxThrowException@8:PROC
EXTRN	___CxxFrameHandler3:PROC
EXTRN	__chkstk:PROC
EXTRN	_memchr:PROC
EXTRN	_memcpy:PROC
EXTRN	_memmove:PROC
EXTRN	_memset:PROC
EXTRN	___security_cookie:DWORD
; Function compile flags: /Ogtp
; File C:\Users\Neonik\Desktop\CSGO Cheat Sources\OTC-Source\otc\cpp\frameworks\GameFramework.cpp
;	COMDAT ?PrintNewLineToConsole@GameFramework@@QAEXH@Z
_TEXT	SEGMENT
_newLineCount$ = 8					; size = 4
?PrintNewLineToConsole@GameFramework@@QAEXH@Z PROC	; GameFramework::PrintNewLineToConsole, COMDAT
; _this$ = ecx

; 3    : void GameFramework::PrintNewLineToConsole (int newLineCount) {

  00000	55		 push	 ebp
  00001	8b ec		 mov	 ebp, esp
  00003	56		 push	 esi

; 4    : 	for (int lineIterator = 0; lineIterator < newLineCount; lineIterator++) m_PrintInterface ("\n");

  00004	8b 75 08	 mov	 esi, DWORD PTR _newLineCount$[ebp]
  00007	57		 push	 edi
  00008	8b f9		 mov	 edi, ecx
  0000a	85 f6		 test	 esi, esi
  0000c	7e 13		 jle	 SHORT $LN3@PrintNewLi
  0000e	66 90		 npad	 2
$LL4@PrintNewLi:
  00010	8b 07		 mov	 eax, DWORD PTR [edi]
  00012	68 00 00 00 00	 push	 OFFSET ??_C@_01EEMJAFIK@?6@
  00017	ff d0		 call	 eax
  00019	83 c4 04	 add	 esp, 4
  0001c	83 ee 01	 sub	 esi, 1
  0001f	75 ef		 jne	 SHORT $LL4@PrintNewLi
$LN3@PrintNewLi:
  00021	5f		 pop	 edi

; 5    : }

  00022	5e		 pop	 esi
  00023	5d		 pop	 ebp
  00024	c2 04 00	 ret	 4
?PrintNewLineToConsole@GameFramework@@QAEXH@Z ENDP	; GameFramework::PrintNewLineToConsole
_TEXT	ENDS
; Function compile flags: /Ogtp
; File C:\Users\Neonik\Desktop\CSGO Cheat Sources\OTC-Source\otc\cpp\frameworks\GameFramework.cpp
;	COMDAT ?PrintToConsole@GameFramework@@QAEP6AXPBDZZXZ
_TEXT	SEGMENT
?PrintToConsole@GameFramework@@QAEP6AXPBDZZXZ PROC	; GameFramework::PrintToConsole, COMDAT
; _this$ = ecx

; 7    : GameFramework::oPrintConsoleInterface GameFramework::PrintToConsole( ) {

  00000	56		 push	 esi
  00001	8b f1		 mov	 esi, ecx

; 4    : 	for (int lineIterator = 0; lineIterator < newLineCount; lineIterator++) m_PrintInterface ("\n");

  00003	68 00 00 00 00	 push	 OFFSET ??_C@_01EEMJAFIK@?6@
  00008	8b 06		 mov	 eax, DWORD PTR [esi]
  0000a	ff d0		 call	 eax
  0000c	83 c4 04	 add	 esp, 4

; 8    :     //New line for formating.
; 9    :     PrintNewLineToConsole ();
; 10   :     //"Timer" stonks.
; 11   :     Sleep (0x90);

  0000f	68 90 00 00 00	 push	 144			; 00000090H
  00014	ff 15 00 00 00
	00		 call	 DWORD PTR __imp__Sleep@4

; 12   :     return m_PrintInterface;

  0001a	8b 06		 mov	 eax, DWORD PTR [esi]
  0001c	5e		 pop	 esi

; 13   : }

  0001d	c3		 ret	 0
?PrintToConsole@GameFramework@@QAEP6AXPBDZZXZ ENDP	; GameFramework::PrintToConsole
_TEXT	ENDS
END
